target datalayout = "e-m:e-p270:32:32-p271:32:32-p272:64:64-i64:64-i128:128-f80:128-n8:16:32:64-S128"
target triple = "x86_64-pc-linux-gnu"

%struct.b2World = type { %struct.b2ArenaAllocator, %struct.b2BroadPhase, %struct.b2ConstraintGraph, %struct.b2IdPool, %struct.b2BodyArray, %struct.b2IdPool, %struct.b2SolverSetArray, %struct.b2IdPool, %struct.b2JointArray, %struct.b2IdPool, %struct.b2ContactArray, %struct.b2IdPool, %struct.b2IslandArray, %struct.b2IdPool, %struct.b2IdPool, %struct.b2ShapeArray, %struct.b2ChainShapeArray, %struct.b2SensorArray, %struct.b2TaskContextArray, %struct.b2SensorTaskContextArray, %struct.b2BodyMoveEventArray, %struct.b2SensorBeginTouchEventArray, %struct.b2ContactBeginTouchEventArray, [2 x %struct.b2SensorEndTouchEventArray], [2 x %struct.b2ContactEndTouchEventArray], i32, %struct.b2ContactHitEventArray, %struct.b2BitSet, %struct.b2BitSet, %struct.b2BitSet, i64, i32, %struct.b2Vec2, float, float, float, float, float, float, float, float, ptr, ptr, i16, %struct.b2Profile, ptr, ptr, ptr, ptr, i32, ptr, ptr, ptr, ptr, ptr, float, i32, i32, i16, i8, i8, i8, i8, i8, i8 }
%struct.b2ArenaAllocator = type { ptr, i32, i32, i32, i32, %struct.b2ArenaEntryArray }
%struct.b2ArenaEntryArray = type { ptr, i32, i32 }
%struct.b2BroadPhase = type { [3 x %struct.b2DynamicTree], i32, %struct.b2HashSet, %struct.b2IntArray, ptr, ptr, i32, %struct.b2AtomicInt, %struct.b2HashSet }
%struct.b2DynamicTree = type { ptr, i32, i32, i32, i32, i32, ptr, ptr, ptr, ptr, i32 }
%struct.b2IntArray = type { ptr, i32, i32 }
%struct.b2AtomicInt = type { i32 }
%struct.b2HashSet = type { ptr, i32, i32 }
%struct.b2ConstraintGraph = type { [12 x %struct.b2GraphColor] }
%struct.b2GraphColor = type { %struct.b2BitSet, %struct.b2ContactSimArray, %struct.b2JointSimArray, %union.anon }
%struct.b2ContactSimArray = type { ptr, i32, i32 }
%struct.b2JointSimArray = type { ptr, i32, i32 }
%union.anon = type { ptr }
%struct.b2BodyArray = type { ptr, i32, i32 }
%struct.b2SolverSetArray = type { ptr, i32, i32 }
%struct.b2JointArray = type { ptr, i32, i32 }
%struct.b2ContactArray = type { ptr, i32, i32 }
%struct.b2IslandArray = type { ptr, i32, i32 }
%struct.b2IdPool = type { %struct.b2IntArray, i32 }
%struct.b2ShapeArray = type { ptr, i32, i32 }
%struct.b2ChainShapeArray = type { ptr, i32, i32 }
%struct.b2SensorArray = type { ptr, i32, i32 }
%struct.b2TaskContextArray = type { ptr, i32, i32 }
%struct.b2SensorTaskContextArray = type { ptr, i32, i32 }
%struct.b2BodyMoveEventArray = type { ptr, i32, i32 }
%struct.b2SensorBeginTouchEventArray = type { ptr, i32, i32 }
%struct.b2ContactBeginTouchEventArray = type { ptr, i32, i32 }
%struct.b2SensorEndTouchEventArray = type { ptr, i32, i32 }
%struct.b2ContactEndTouchEventArray = type { ptr, i32, i32 }
%struct.b2ContactHitEventArray = type { ptr, i32, i32 }
%struct.b2BitSet = type { ptr, i32, i32 }
%struct.b2Vec2 = type { float, float }
%struct.b2Profile = type { float, float, float, float, float, float, float, float, float, float, float, float, float, float, float, float, float, float, float, float, float, float }
%struct.b2WorldId = type { i16, i16 }
%struct.b2TreeStats = type { i32, i32 }
%struct.b2QueryFilter = type { i64, i64 }
%struct.b2RayCastInput = type { %struct.b2Vec2, %struct.b2Vec2, float }
%struct.WorldRayCastContext = type { ptr, ptr, %struct.b2QueryFilter, float, ptr }

@b2_worlds = hidden global [128 x %struct.b2World] zeroinitializer, align 16

; Function Attrs: nounwind uwtable
define hidden ptr @b2GetWorldFromId(i32 %0) #0 {
  %2 = alloca %struct.b2WorldId, align 2
  %3 = alloca ptr, align 8
  store i32 %0, ptr %2, align 2
  call void @llvm.lifetime.start.p0(i64 8, ptr %3) #10
  %4 = getelementptr inbounds nuw %struct.b2WorldId, ptr %2, i32 0, i32 0
  %5 = load i16, ptr %4, align 2, !tbaa !44
  %6 = zext i16 %5 to i32
  %7 = sub nsw i32 %6, 1
  %8 = sext i32 %7 to i64
  %9 = getelementptr inbounds %struct.b2World, ptr @b2_worlds, i64 %8
  store ptr %9, ptr %3, align 8, !tbaa !47
  %10 = load ptr, ptr %3, align 8, !tbaa !47
  call void @llvm.lifetime.end.p0(i64 8, ptr %3) #10
  ret ptr %10
}

; Function Attrs: nounwind uwtable
define i64 @b2World_CastRay(i32 %0, <2 x float> %1, <2 x float> %2, i64 %3, i64 %4, ptr noundef %5, ptr noundef %6) #6 {
  %8 = alloca %struct.b2TreeStats, align 4
  %9 = alloca %struct.b2WorldId, align 2
  %10 = alloca %struct.b2Vec2, align 4
  %11 = alloca %struct.b2Vec2, align 4
  %12 = alloca %struct.b2QueryFilter, align 8
  %13 = alloca ptr, align 8
  %14 = alloca ptr, align 8
  %15 = alloca ptr, align 8
  %16 = alloca i32, align 4
  %17 = alloca %struct.b2RayCastInput, align 4
  %18 = alloca %struct.WorldRayCastContext, align 8
  %19 = alloca i32, align 4
  %20 = alloca %struct.b2TreeStats, align 4
  store i32 %0, ptr %9, align 2
  store <2 x float> %1, ptr %10, align 4
  store <2 x float> %2, ptr %11, align 4
  %21 = getelementptr inbounds nuw { i64, i64 }, ptr %12, i32 0, i32 0
  store i64 %3, ptr %21, align 8
  %22 = getelementptr inbounds nuw { i64, i64 }, ptr %12, i32 0, i32 1
  store i64 %4, ptr %22, align 8
  store ptr %5, ptr %13, align 8, !tbaa !12
  store ptr %6, ptr %14, align 8, !tbaa !12
  call void @llvm.memset.p0.i64(ptr align 4 %8, i8 0, i64 8, i1 false)
  call void @llvm.lifetime.start.p0(i64 8, ptr %15) #10
  %23 = load i32, ptr %9, align 2
  %24 = call ptr @b2GetWorldFromId(i32 %23)
  store ptr %24, ptr %15, align 8, !tbaa !47
  %25 = load ptr, ptr %15, align 8, !tbaa !47
  %26 = getelementptr inbounds nuw %struct.b2World, ptr %25, i32 0, i32 60
  %27 = load i8, ptr %26, align 1, !tbaa !49, !range !90, !noundef !91
  %28 = trunc i8 %27 to i1
  br i1 %28, label %29, label %30

29:                                               ; preds = %7
  store i32 1, ptr %16, align 4
  br label %86

30:                                               ; preds = %7
  call void @llvm.lifetime.start.p0(i64 20, ptr %17) #10
  %31 = getelementptr inbounds nuw %struct.b2RayCastInput, ptr %17, i32 0, i32 0
  call void @llvm.memcpy.p0.p0.i64(ptr align 4 %31, ptr align 4 %10, i64 8, i1 false), !tbaa.struct !162
  %32 = getelementptr inbounds nuw %struct.b2RayCastInput, ptr %17, i32 0, i32 1
  call void @llvm.memcpy.p0.p0.i64(ptr align 4 %32, ptr align 4 %11, i64 8, i1 false), !tbaa.struct !162
  %33 = getelementptr inbounds nuw %struct.b2RayCastInput, ptr %17, i32 0, i32 2
  store float 1.000000e+00, ptr %33, align 4, !tbaa !535
  call void @llvm.lifetime.start.p0(i64 48, ptr %18) #10
  %34 = getelementptr inbounds nuw %struct.WorldRayCastContext, ptr %18, i32 0, i32 0
  %35 = load ptr, ptr %15, align 8, !tbaa !47
  store ptr %35, ptr %34, align 8, !tbaa !537
  %36 = getelementptr inbounds nuw %struct.WorldRayCastContext, ptr %18, i32 0, i32 1
  %37 = load ptr, ptr %13, align 8, !tbaa !12
  store ptr %37, ptr %36, align 8, !tbaa !539
  %38 = getelementptr inbounds nuw %struct.WorldRayCastContext, ptr %18, i32 0, i32 2
  call void @llvm.memcpy.p0.p0.i64(ptr align 8 %38, ptr align 8 %12, i64 16, i1 false), !tbaa.struct !506
  %39 = getelementptr inbounds nuw %struct.WorldRayCastContext, ptr %18, i32 0, i32 3
  store float 1.000000e+00, ptr %39, align 8, !tbaa !540
  %40 = getelementptr i8, ptr %18, i64 36
  call void @llvm.memset.p0.i64(ptr align 4 %40, i8 0, i64 4, i1 false)
  %41 = getelementptr inbounds nuw %struct.WorldRayCastContext, ptr %18, i32 0, i32 4
  %42 = load ptr, ptr %14, align 8, !tbaa !12
  store ptr %42, ptr %41, align 8, !tbaa !541
  call void @llvm.lifetime.start.p0(i64 4, ptr %19) #10
  store i32 0, ptr %19, align 4, !tbaa !3
  br label %43

43:                                               ; preds = %79, %30
  %44 = load i32, ptr %19, align 4, !tbaa !3
  %45 = icmp slt i32 %44, 3
  br i1 %45, label %47, label %46

46:                                               ; preds = %43
  store i32 2, ptr %16, align 4
  br label %82

47:                                               ; preds = %43
  call void @llvm.lifetime.start.p0(i64 8, ptr %20) #10
  %48 = load ptr, ptr %15, align 8, !tbaa !47
  %49 = getelementptr inbounds nuw %struct.b2World, ptr %48, i32 0, i32 1
  %50 = getelementptr inbounds nuw %struct.b2BroadPhase, ptr %49, i32 0, i32 0
  %51 = getelementptr inbounds [3 x %struct.b2DynamicTree], ptr %50, i64 0, i64 0
  %52 = load i32, ptr %19, align 4, !tbaa !3
  %53 = sext i32 %52 to i64
  %54 = getelementptr inbounds %struct.b2DynamicTree, ptr %51, i64 %53
  %55 = getelementptr inbounds nuw %struct.b2QueryFilter, ptr %12, i32 0, i32 1
  %56 = load i64, ptr %55, align 8, !tbaa !508
  %57 = call i64 @b2DynamicTree_RayCast(ptr noundef %54, ptr noundef %17, i64 noundef %56, ptr noundef @RayCastCallback, ptr noundef %18)
  store i64 %57, ptr %20, align 4
  %58 = getelementptr inbounds nuw %struct.b2TreeStats, ptr %20, i32 0, i32 0
  %59 = load i32, ptr %58, align 4, !tbaa !509
  %60 = getelementptr inbounds nuw %struct.b2TreeStats, ptr %8, i32 0, i32 0
  %61 = load i32, ptr %60, align 4, !tbaa !509
  %62 = add nsw i32 %61, %59
  store i32 %62, ptr %60, align 4, !tbaa !509
  %63 = getelementptr inbounds nuw %struct.b2TreeStats, ptr %20, i32 0, i32 1
  %64 = load i32, ptr %63, align 4, !tbaa !511
  %65 = getelementptr inbounds nuw %struct.b2TreeStats, ptr %8, i32 0, i32 1
  %66 = load i32, ptr %65, align 4, !tbaa !511
  %67 = add nsw i32 %66, %64
  store i32 %67, ptr %65, align 4, !tbaa !511
  %68 = getelementptr inbounds nuw %struct.WorldRayCastContext, ptr %18, i32 0, i32 3
  %69 = load float, ptr %68, align 8, !tbaa !540
  %70 = fcmp oeq float %69, 0.000000e+00
  br i1 %70, label %71, label %72

71:                                               ; preds = %47
  store i32 1, ptr %16, align 4
  br label %76

72:                                               ; preds = %47
  %73 = getelementptr inbounds nuw %struct.WorldRayCastContext, ptr %18, i32 0, i32 3
  %74 = load float, ptr %73, align 8, !tbaa !540
  %75 = getelementptr inbounds nuw %struct.b2RayCastInput, ptr %17, i32 0, i32 2
  store float %74, ptr %75, align 4, !tbaa !535
  store i32 0, ptr %16, align 4
  br label %76

76:                                               ; preds = %72, %71
  call void @llvm.lifetime.end.p0(i64 8, ptr %20) #10
  %77 = load i32, ptr %16, align 4
  switch i32 %77, label %82 [
    i32 0, label %78
  ]

78:                                               ; preds = %76
  br label %79

79:                                               ; preds = %78
  %80 = load i32, ptr %19, align 4, !tbaa !3
  %81 = add nsw i32 %80, 1
  store i32 %81, ptr %19, align 4, !tbaa !3
  br label %43, !llvm.loop !542

82:                                               ; preds = %76, %46
  call void @llvm.lifetime.end.p0(i64 4, ptr %19) #10
  %83 = load i32, ptr %16, align 4
  switch i32 %83, label %85 [
    i32 2, label %84
  ]

84:                                               ; preds = %82
  store i32 1, ptr %16, align 4
  br label %85

85:                                               ; preds = %84, %82
  call void @llvm.lifetime.end.p0(i64 48, ptr %18) #10
  call void @llvm.lifetime.end.p0(i64 20, ptr %17) #10
  br label %86

86:                                               ; preds = %85, %29
  call void @llvm.lifetime.end.p0(i64 8, ptr %15) #10
  %87 = load i64, ptr %8, align 4
  ret i64 %87
}