; Function Attrs: nounwind uwtable
define i64 @b2World_CastRay(i32 %0, <2 x float> %1, <2 x float> %2, i64 %3, i64 %4, ptr noundef %5, ptr noundef %6) local_unnamed_addr #8 {
  %8 = alloca %struct.b2RayCastInput, align 8
  %9 = alloca %struct.WorldRayCastContext, align 8
  %10 = and i32 %0, 65535
  %11 = zext nneg i32 %10 to i64
  %12 = getelementptr %struct.b2World, ptr @b2_worlds, i64 %11
  %13 = getelementptr i8, ptr %12, i64 -9
  %14 = load i8, ptr %13, align 1, !tbaa !35, !range !77, !noundef !78
  %15 = trunc nuw i8 %14 to i1
  br i1 %15, label %38, label %16

16:                                               ; preds = %7
  %17 = getelementptr i8, ptr %12, i64 -1792
  call void @llvm.lifetime.start.p0(i64 20, ptr nonnull %8) #22
  store <2 x float> %1, ptr %8, align 8
  %18 = getelementptr inbounds nuw i8, ptr %8, i64 8
  store <2 x float> %2, ptr %18, align 8
  %19 = getelementptr inbounds nuw i8, ptr %8, i64 16
  store float 1.000000e+00, ptr %19, align 8, !tbaa !434
  call void @llvm.lifetime.start.p0(i64 48, ptr nonnull %9) #22
  store ptr %17, ptr %9, align 8, !tbaa !436
  %20 = getelementptr inbounds nuw i8, ptr %9, i64 8
  store ptr %5, ptr %20, align 8, !tbaa !438
  %21 = getelementptr inbounds nuw i8, ptr %9, i64 16
  store i64 %3, ptr %21, align 8, !tbaa !227
  %.sroa.2.0..sroa_idx = getelementptr inbounds nuw i8, ptr %9, i64 24
  store i64 %4, ptr %.sroa.2.0..sroa_idx, align 8, !tbaa !227
  %22 = getelementptr inbounds nuw i8, ptr %9, i64 32
  store float 1.000000e+00, ptr %22, align 8, !tbaa !439
  %23 = getelementptr inbounds nuw i8, ptr %9, i64 36
  store i32 0, ptr %23, align 4
  %24 = getelementptr inbounds nuw i8, ptr %9, i64 40
  store ptr %6, ptr %24, align 8, !tbaa !440
  %25 = getelementptr i8, ptr %12, i64 -1752
  br label %26

26:                                               ; preds = %16, %33
  %indvars.iv = phi i64 [ 0, %16 ], [ %indvars.iv.next, %33 ]
  %.sroa.014.123 = phi i32 [ 0, %16 ], [ %29, %33 ]
  %.sroa.416.122 = phi i32 [ 0, %16 ], [ %30, %33 ]
  %27 = getelementptr inbounds nuw %struct.b2DynamicTree, ptr %25, i64 %indvars.iv
  %28 = call i64 @b2DynamicTree_RayCast(ptr noundef nonnull %27, ptr noundef nonnull %8, i64 noundef %4, ptr noundef nonnull @RayCastCallback, ptr noundef nonnull %9) #22
  %.sroa.0.0.extract.trunc = trunc i64 %28 to i32
  %.sroa.4.0.extract.shift = lshr i64 %28, 32
  %.sroa.4.0.extract.trunc = trunc nuw i64 %.sroa.4.0.extract.shift to i32
  %29 = add nsw i32 %.sroa.014.123, %.sroa.0.0.extract.trunc
  %30 = add nsw i32 %.sroa.416.122, %.sroa.4.0.extract.trunc
  %31 = load float, ptr %22, align 8, !tbaa !439
  %32 = fcmp une float %31, 0.000000e+00
  br i1 %32, label %33, label %.critedge

33:                                               ; preds = %26
  store float %31, ptr %19, align 8, !tbaa !434
  %indvars.iv.next = add nuw nsw i64 %indvars.iv, 1
  %exitcond.not = icmp eq i64 %indvars.iv.next, 3
  br i1 %exitcond.not, label %.critedge, label %26, !llvm.loop !441

.critedge:                                        ; preds = %26, %33
  call void @llvm.lifetime.end.p0(i64 48, ptr nonnull %9) #22
  call void @llvm.lifetime.end.p0(i64 20, ptr nonnull %8) #22
  %34 = zext i32 %30 to i64
  %35 = shl nuw i64 %34, 32
  %36 = zext i32 %29 to i64
  %37 = or disjoint i64 %35, %36
  br label %38

38:                                               ; preds = %7, %.critedge
  %.sroa.014.0.insert.insert = phi i64 [ %37, %.critedge ], [ 0, %7 ]
  ret i64 %.sroa.014.0.insert.insert
}